; Function Attrs: mustprogress nounwind uwtable
define hidden void @_ZN5boost3log11v2_mt_posix4coreD2Ev(ptr nocapture noundef nonnull align 8 dereferenceable(8) %0) unnamed_addr #3 align 2 {
  %2 = load ptr, ptr %0, align 8, !tbaa !33
  %3 = icmp eq ptr %2, null
  br i1 %3, label %5, label %4

4:                                                ; preds = %1
  tail call void @_ZN5boost3log11v2_mt_posix4core14implementationD2Ev(ptr noundef nonnull align 8 dereferenceable(136) %2) #21
  tail call void @_ZdlPvm(ptr noundef nonnull %2, i64 noundef 136) #24
  br label %5

5:                                                ; preds = %4, %1
  store ptr null, ptr %0, align 8, !tbaa !33
  ret void
}